; Function Attrs: null_pointer_is_valid sspstrong uwtable
define internal i32 @iremotewinspool_dissect_winspool_AsyncEnumPrinterData_request(ptr noundef %0, i32 noundef %1, ptr noundef %2, ptr noundef %3, ptr noundef initializes((72, 80)) %4, ptr noundef %5) #0 {
  %7 = getelementptr inbounds nuw i8, ptr %4, i64 72
  store ptr @.str.550, ptr %7, align 8
  %8 = load i32, ptr @hf_iremotewinspool_winspool_AsyncEnumPrinterData_hPrinter, align 4
  %9 = tail call i32 @PIDL_dissect_policy_hnd(ptr noundef %0, i32 noundef %1, ptr noundef %2, ptr noundef %3, ptr noundef %4, ptr noundef %5, i32 noundef %8, i32 noundef 0)
  %10 = tail call i32 @dissect_deferred_pointers(ptr noundef %2, ptr noundef %0, i32 noundef %9, ptr noundef %4, ptr noundef %5)
  %11 = load i32, ptr @hf_iremotewinspool_winspool_AsyncEnumPrinterData_dwIndex, align 4
  %12 = tail call i32 @PIDL_dissect_uint32(ptr noundef %0, i32 noundef %10, ptr noundef %2, ptr noundef %3, ptr noundef %4, ptr noundef %5, i32 noundef %11, i32 noundef 0)
  %13 = tail call i32 @dissect_deferred_pointers(ptr noundef %2, ptr noundef %0, i32 noundef %12, ptr noundef %4, ptr noundef %5)
  %14 = load i32, ptr @hf_iremotewinspool_winspool_AsyncEnumPrinterData_cbValueName, align 4
  %15 = tail call i32 @PIDL_dissect_uint32(ptr noundef %0, i32 noundef %13, ptr noundef %2, ptr noundef %3, ptr noundef %4, ptr noundef %5, i32 noundef %14, i32 noundef 0)
  %16 = tail call i32 @dissect_deferred_pointers(ptr noundef %2, ptr noundef %0, i32 noundef %15, ptr noundef %4, ptr noundef %5)
  %17 = load i32, ptr @hf_iremotewinspool_winspool_AsyncEnumPrinterData_cbData, align 4
  %18 = tail call i32 @PIDL_dissect_uint32(ptr noundef %0, i32 noundef %16, ptr noundef %2, ptr noundef %3, ptr noundef %4, ptr noundef %5, i32 noundef %17, i32 noundef 0)
  %19 = tail call i32 @dissect_deferred_pointers(ptr noundef %2, ptr noundef %0, i32 noundef %18, ptr noundef %4, ptr noundef %5)
  ret i32 %19
}